; ModuleID = '43/1851.c'
source_filename = "43/1851.c"
target datalayout = "e-m:e-p270:32:32-p271:32:32-p272:64:64-i64:64-f80:128-n8:16:32:64-S128"
target triple = "x86_64-pc-linux-gnu"

@.str = private unnamed_addr constant [3 x i8] c"%d\00", align 1
@.str.1 = private unnamed_addr constant [7 x i8] c"%d %d\0A\00", align 1

; Function Attrs: noinline nounwind uwtable
define dso_local i32 @main() #0 {
  %1 = alloca i32, align 4
  %2 = alloca i32, align 4
  %3 = alloca [1229 x i32], align 16
  %4 = alloca i32, align 4
  %5 = alloca i32, align 4
  %6 = alloca i32, align 4
  %7 = alloca i32, align 4
  %8 = alloca i32, align 4
  %9 = alloca i32, align 4
  store i32 0, i32* %1, align 4
  store i32 0, i32* %7, align 4
  store i32 3, i32* %4, align 4
  br label %10

10:                                               ; preds = %46, %0
  %11 = load i32, i32* %4, align 4
  %12 = icmp slt i32 %11, 10000
  br i1 %12, label %13, label %49

13:                                               ; preds = %10
  %14 = load i32, i32* %4, align 4
  %15 = sitofp i32 %14 to double
  %16 = call double @sqrt(double %15) #3
  %17 = fptosi double %16 to i32
  store i32 %17, i32* %6, align 4
  store i32 2, i32* %5, align 4
  br label %18

18:                                               ; preds = %42, %13
  %19 = load i32, i32* %5, align 4
  %20 = load i32, i32* %6, align 4
  %21 = add nsw i32 %20, 1
  %22 = icmp sle i32 %19, %21
  br i1 %22, label %23, label %45

23:                                               ; preds = %18
  %24 = load i32, i32* %4, align 4
  %25 = load i32, i32* %5, align 4
  %26 = srem i32 %24, %25
  %27 = icmp eq i32 %26, 0
  br i1 %27, label %28, label %29

28:                                               ; preds = %23
  br label %45

29:                                               ; preds = %23
  %30 = load i32, i32* %5, align 4
  %31 = load i32, i32* %6, align 4
  %32 = add nsw i32 %31, 1
  %33 = icmp eq i32 %30, %32
  br i1 %33, label %34, label %41

34:                                               ; preds = %29
  %35 = load i32, i32* %4, align 4
  %36 = load i32, i32* %7, align 4
  %37 = sext i32 %36 to i64
  %38 = getelementptr inbounds [1229 x i32], [1229 x i32]* %3, i64 0, i64 %37
  store i32 %35, i32* %38, align 4
  %39 = load i32, i32* %7, align 4
  %40 = add nsw i32 %39, 1
  store i32 %40, i32* %7, align 4
  br label %41

41:                                               ; preds = %34, %29
  br label %42

42:                                               ; preds = %41
  %43 = load i32, i32* %5, align 4
  %44 = add nsw i32 %43, 1
  store i32 %44, i32* %5, align 4
  br label %18

45:                                               ; preds = %28, %18
  br label %46

46:                                               ; preds = %45
  %47 = load i32, i32* %4, align 4
  %48 = add nsw i32 %47, 1
  store i32 %48, i32* %4, align 4
  br label %10

49:                                               ; preds = %10
  %50 = call i32 (i8*, ...) @__isoc99_scanf(i8* getelementptr inbounds ([3 x i8], [3 x i8]* @.str, i64 0, i64 0), i32* %2)
  store i32 0, i32* %8, align 4
  br label %51

51:                                               ; preds = %100, %49
  %52 = load i32, i32* %8, align 4
  %53 = sext i32 %52 to i64
  %54 = getelementptr inbounds [1229 x i32], [1229 x i32]* %3, i64 0, i64 %53
  %55 = load i32, i32* %54, align 4
  %56 = load i32, i32* %2, align 4
  %57 = sdiv i32 %56, 2
  %58 = icmp sle i32 %55, %57
  br i1 %58, label %59, label %103

59:                                               ; preds = %51
  %60 = load i32, i32* %8, align 4
  store i32 %60, i32* %9, align 4
  br label %61

61:                                               ; preds = %96, %59
  %62 = load i32, i32* %8, align 4
  %63 = sext i32 %62 to i64
  %64 = getelementptr inbounds [1229 x i32], [1229 x i32]* %3, i64 0, i64 %63
  %65 = load i32, i32* %64, align 4
  %66 = load i32, i32* %9, align 4
  %67 = sext i32 %66 to i64
  %68 = getelementptr inbounds [1229 x i32], [1229 x i32]* %3, i64 0, i64 %67
  %69 = load i32, i32* %68, align 4
  %70 = add nsw i32 %65, %69
  %71 = load i32, i32* %2, align 4
  %72 = icmp sle i32 %70, %71
  br i1 %72, label %73, label %99

73:                                               ; preds = %61
  %74 = load i32, i32* %8, align 4
  %75 = sext i32 %74 to i64
  %76 = getelementptr inbounds [1229 x i32], [1229 x i32]* %3, i64 0, i64 %75
  %77 = load i32, i32* %76, align 4
  %78 = load i32, i32* %9, align 4
  %79 = sext i32 %78 to i64
  %80 = getelementptr inbounds [1229 x i32], [1229 x i32]* %3, i64 0, i64 %79
  %81 = load i32, i32* %80, align 4
  %82 = add nsw i32 %77, %81
  %83 = load i32, i32* %2, align 4
  %84 = icmp eq i32 %82, %83
  br i1 %84, label %85, label %95

85:                                               ; preds = %73
  %86 = load i32, i32* %8, align 4
  %87 = sext i32 %86 to i64
  %88 = getelementptr inbounds [1229 x i32], [1229 x i32]* %3, i64 0, i64 %87
  %89 = load i32, i32* %88, align 4
  %90 = load i32, i32* %9, align 4
  %91 = sext i32 %90 to i64
  %92 = getelementptr inbounds [1229 x i32], [1229 x i32]* %3, i64 0, i64 %91
  %93 = load i32, i32* %92, align 4
  %94 = call i32 (i8*, ...) @printf(i8* getelementptr inbounds ([7 x i8], [7 x i8]* @.str.1, i64 0, i64 0), i32 %89, i32 %93)
  br label %95

95:                                               ; preds = %85, %73
  br label %96

96:                                               ; preds = %95
  %97 = load i32, i32* %9, align 4
  %98 = add nsw i32 %97, 1
  store i32 %98, i32* %9, align 4
  br label %61

99:                                               ; preds = %61
  br label %100

100:                                              ; preds = %99
  %101 = load i32, i32* %8, align 4
  %102 = add nsw i32 %101, 1
  store i32 %102, i32* %8, align 4
  br label %51

103:                                              ; preds = %51
  ret i32 0
}

; Function Attrs: nounwind
declare dso_local double @sqrt(double) #1

declare dso_local i32 @__isoc99_scanf(i8*, ...) #2

declare dso_local i32 @printf(i8*, ...) #2


!llvm.module.flags = !{!0}
!llvm.ident = !{!1}

!0 = !{i32 1, !"wchar_size", i32 4}
!1 = !{!"clang version 10.0.0-4ubuntu1 "}
